target datalayout = "e-m:e-p270:32:32-p271:32:32-p272:64:64-i64:64-i128:128-f80:128-n8:16:32:64-S128"
target triple = "x86_64-pc-linux-gnu"

%"class.std::unique_ptr" = type { %"struct.std::__uniq_ptr_data" }
%"struct.std::__uniq_ptr_data" = type { %"class.std::__uniq_ptr_impl" }
%"class.std::__uniq_ptr_impl" = type { %"class.std::tuple" }
%"class.std::tuple" = type { %"struct.std::_Tuple_impl" }
%"struct.std::_Tuple_impl" = type { %"struct.std::_Head_base.1" }
%"struct.std::_Head_base.1" = type { ptr }
%"class.std::basic_string_view" = type { i64, ptr }
%"class.evmone::Tracer" = type { ptr, %"class.std::unique_ptr" }
%"class.std::basic_string_view.32" = type { i64, ptr }
%"class.evmone::(anonymous namespace)::InstructionCounter" = type { %"class.evmone::Tracer", %"class.std::stack.39", %"struct.std::array.46", %"class.std::basic_string_view" }
%"class.std::stack.39" = type { %"class.std::deque.40" }
%"class.std::deque.40" = type { %"class.std::_Deque_base.41" }
%"class.std::_Deque_base.41" = type { %"struct.std::_Deque_base<std::basic_string_view<unsigned char, evmc::byte_traits<unsigned char>>, std::allocator<std::basic_string_view<unsigned char, evmc::byte_traits<unsigned char>>>>::_Deque_impl" }
%"struct.std::_Deque_base<std::basic_string_view<unsigned char, evmc::byte_traits<unsigned char>>, std::allocator<std::basic_string_view<unsigned char, evmc::byte_traits<unsigned char>>>>::_Deque_impl" = type { %"struct.std::_Deque_base<std::basic_string_view<unsigned char, evmc::byte_traits<unsigned char>>, std::allocator<std::basic_string_view<unsigned char, evmc::byte_traits<unsigned char>>>>::_Deque_impl_data" }
%"struct.std::_Deque_base<std::basic_string_view<unsigned char, evmc::byte_traits<unsigned char>>, std::allocator<std::basic_string_view<unsigned char, evmc::byte_traits<unsigned char>>>>::_Deque_impl_data" = type { ptr, i64, %"struct.std::_Deque_iterator.45", %"struct.std::_Deque_iterator.45" }
%"struct.std::_Deque_iterator.45" = type { ptr, ptr, ptr, ptr }
%"struct.std::array.46" = type { [256 x i32] }

; Function Attrs: mustprogress nounwind uwtable
define linkonce_odr hidden void @_ZN9__gnu_cxx13new_allocatorISt17basic_string_viewIhN4evmc11byte_traitsIhEEEE10deallocateEPS5_m(ptr noundef nonnull align 1 dereferenceable(1) %0, ptr noundef %1, i64 noundef %2) #0 comdat align 2 {
  %4 = alloca ptr, align 8
  %5 = alloca ptr, align 8
  %6 = alloca i64, align 8
  store ptr %0, ptr %4, align 8, !tbaa !235
  store ptr %1, ptr %5, align 8, !tbaa !140
  store i64 %2, ptr %6, align 8, !tbaa !22
  %7 = load ptr, ptr %5, align 8, !tbaa !140
  %8 = load i64, ptr %6, align 8, !tbaa !22
  %9 = mul i64 %8, 16
  call void @_ZdlPvm(ptr noundef %7, i64 noundef %9) #16
  ret void
}

; Function Attrs: alwaysinline mustprogress nounwind uwtable
define linkonce_odr hidden void @_ZNSaISt17basic_string_viewIhN4evmc11byte_traitsIhEEEE10deallocateEPS3_m(ptr noundef nonnull align 1 dereferenceable(1) %0, ptr noundef %1, i64 noundef %2) #6 comdat align 2 {
  %4 = alloca ptr, align 8
  %5 = alloca ptr, align 8
  %6 = alloca i64, align 8
  store ptr %0, ptr %4, align 8, !tbaa !231
  store ptr %1, ptr %5, align 8, !tbaa !140
  store i64 %2, ptr %6, align 8, !tbaa !22
  %7 = load ptr, ptr %4, align 8
  %8 = load ptr, ptr %5, align 8, !tbaa !140
  %9 = load i64, ptr %6, align 8, !tbaa !22
  call void @_ZN9__gnu_cxx13new_allocatorISt17basic_string_viewIhN4evmc11byte_traitsIhEEEE10deallocateEPS5_m(ptr noundef nonnull align 1 dereferenceable(1) %7, ptr noundef %8, i64 noundef %9)
  ret void
}

; Function Attrs: mustprogress nounwind uwtable
define linkonce_odr hidden noundef i64 @_ZNSt15_Deque_iteratorISt17basic_string_viewIhN4evmc11byte_traitsIhEEERS4_PS4_E14_S_buffer_sizeEv() #0 comdat align 2 {
  %1 = call noundef i64 @_ZSt16__deque_buf_sizem(i64 noundef 16)
  ret i64 %1
}

; Function Attrs: mustprogress nounwind uwtable
define linkonce_odr hidden void @_ZNSt16allocator_traitsISaISt17basic_string_viewIhN4evmc11byte_traitsIhEEEEE10deallocateERS5_PS4_m(ptr noundef nonnull align 1 dereferenceable(1) %0, ptr noundef %1, i64 noundef %2) #0 comdat align 2 {
  %4 = alloca ptr, align 8
  %5 = alloca ptr, align 8
  %6 = alloca i64, align 8
  store ptr %0, ptr %4, align 8, !tbaa !231
  store ptr %1, ptr %5, align 8, !tbaa !140
  store i64 %2, ptr %6, align 8, !tbaa !22
  %7 = load ptr, ptr %4, align 8, !tbaa !231, !nonnull !8
  %8 = load ptr, ptr %5, align 8, !tbaa !140
  %9 = load i64, ptr %6, align 8, !tbaa !22
  call void @_ZNSaISt17basic_string_viewIhN4evmc11byte_traitsIhEEEE10deallocateEPS3_m(ptr noundef nonnull align 1 dereferenceable(1) %7, ptr noundef %8, i64 noundef %9)
  ret void
}

; Function Attrs: inlinehint mustprogress nounwind uwtable
define linkonce_odr noundef i64 @_ZSt16__deque_buf_sizem(i64 noundef %0) #2 comdat {
  %2 = alloca i64, align 8
  store i64 %0, ptr %2, align 8, !tbaa !22
  %3 = load i64, ptr %2, align 8, !tbaa !22
  %4 = icmp ult i64 %3, 512
  br i1 %4, label %5, label %8

5:                                                ; preds = %1
  %6 = load i64, ptr %2, align 8, !tbaa !22
  %7 = udiv i64 512, %6
  br label %9

8:                                                ; preds = %1
  br label %9

9:                                                ; preds = %8, %5
  %10 = phi i64 [ %7, %5 ], [ 1, %8 ]
  ret i64 %10
}

; Function Attrs: mustprogress nounwind uwtable
define linkonce_odr hidden void @_ZNSt15_Deque_iteratorISt17basic_string_viewIhN4evmc11byte_traitsIhEEERS4_PS4_E11_M_set_nodeEPS6_(ptr noundef nonnull align 8 dereferenceable(32) %0, ptr noundef %1) #0 comdat align 2 {
  %3 = alloca ptr, align 8
  %4 = alloca ptr, align 8
  store ptr %0, ptr %3, align 8, !tbaa !237
  store ptr %1, ptr %4, align 8, !tbaa !226
  %5 = load ptr, ptr %3, align 8
  %6 = load ptr, ptr %4, align 8, !tbaa !226
  %7 = getelementptr inbounds nuw %"struct.std::_Deque_iterator.45", ptr %5, i32 0, i32 3
  store ptr %6, ptr %7, align 8, !tbaa !242
  %8 = load ptr, ptr %4, align 8, !tbaa !226
  %9 = load ptr, ptr %8, align 8, !tbaa !140
  %10 = getelementptr inbounds nuw %"struct.std::_Deque_iterator.45", ptr %5, i32 0, i32 1
  store ptr %9, ptr %10, align 8, !tbaa !240
  %11 = getelementptr inbounds nuw %"struct.std::_Deque_iterator.45", ptr %5, i32 0, i32 1
  %12 = load ptr, ptr %11, align 8, !tbaa !240
  %13 = call noundef i64 @_ZNSt15_Deque_iteratorISt17basic_string_viewIhN4evmc11byte_traitsIhEEERS4_PS4_E14_S_buffer_sizeEv() #16
  %14 = getelementptr inbounds %"class.std::basic_string_view.32", ptr %12, i64 %13
  %15 = getelementptr inbounds nuw %"struct.std::_Deque_iterator.45", ptr %5, i32 0, i32 2
  store ptr %14, ptr %15, align 8, !tbaa !241
  ret void
}

; Function Attrs: mustprogress nounwind uwtable
define linkonce_odr hidden void @_ZNSt11_Deque_baseISt17basic_string_viewIhN4evmc11byte_traitsIhEEESaIS4_EE18_M_deallocate_nodeEPS4_(ptr noundef nonnull align 8 dereferenceable(80) %0, ptr noundef %1) #0 comdat align 2 {
  %3 = alloca ptr, align 8
  %4 = alloca ptr, align 8
  store ptr %0, ptr %3, align 8, !tbaa !217
  store ptr %1, ptr %4, align 8, !tbaa !140
  %5 = load ptr, ptr %3, align 8
  %6 = getelementptr inbounds nuw %"class.std::_Deque_base.41", ptr %5, i32 0, i32 0
  %7 = load ptr, ptr %4, align 8, !tbaa !140
  %8 = call noundef i64 @_ZSt16__deque_buf_sizem(i64 noundef 16)
  call void @_ZNSt16allocator_traitsISaISt17basic_string_viewIhN4evmc11byte_traitsIhEEEEE10deallocateERS5_PS4_m(ptr noundef nonnull align 1 dereferenceable(1) %6, ptr noundef %7, i64 noundef %8)
  ret void
}

; Function Attrs: inlinehint mustprogress nounwind uwtable
define linkonce_odr hidden void @_ZSt10destroy_atISt17basic_string_viewIhN4evmc11byte_traitsIhEEEEvPT_(ptr noundef %0) #2 comdat {
  %2 = alloca ptr, align 8
  store ptr %0, ptr %2, align 8, !tbaa !140
  ret void
}

; Function Attrs: mustprogress nounwind uwtable
define linkonce_odr hidden void @_ZNSt5dequeISt17basic_string_viewIhN4evmc11byte_traitsIhEEESaIS4_EE15_M_pop_back_auxEv(ptr noundef nonnull align 8 dereferenceable(80) %0) #0 comdat align 2 {
  %2 = alloca ptr, align 8
  store ptr %0, ptr %2, align 8, !tbaa !215
  %3 = load ptr, ptr %2, align 8
  %4 = getelementptr inbounds nuw %"class.std::_Deque_base.41", ptr %3, i32 0, i32 0
  %5 = getelementptr inbounds nuw %"struct.std::_Deque_base<std::basic_string_view<unsigned char, evmc::byte_traits<unsigned char>>, std::allocator<std::basic_string_view<unsigned char, evmc::byte_traits<unsigned char>>>>::_Deque_impl_data", ptr %4, i32 0, i32 3
  %6 = getelementptr inbounds nuw %"struct.std::_Deque_iterator.45", ptr %5, i32 0, i32 1
  %7 = load ptr, ptr %6, align 8, !tbaa !229
  call void @_ZNSt11_Deque_baseISt17basic_string_viewIhN4evmc11byte_traitsIhEEESaIS4_EE18_M_deallocate_nodeEPS4_(ptr noundef nonnull align 8 dereferenceable(80) %3, ptr noundef %7) #16
  %8 = getelementptr inbounds nuw %"class.std::_Deque_base.41", ptr %3, i32 0, i32 0
  %9 = getelementptr inbounds nuw %"struct.std::_Deque_base<std::basic_string_view<unsigned char, evmc::byte_traits<unsigned char>>, std::allocator<std::basic_string_view<unsigned char, evmc::byte_traits<unsigned char>>>>::_Deque_impl_data", ptr %8, i32 0, i32 3
  %10 = getelementptr inbounds nuw %"class.std::_Deque_base.41", ptr %3, i32 0, i32 0
  %11 = getelementptr inbounds nuw %"struct.std::_Deque_base<std::basic_string_view<unsigned char, evmc::byte_traits<unsigned char>>, std::allocator<std::basic_string_view<unsigned char, evmc::byte_traits<unsigned char>>>>::_Deque_impl_data", ptr %10, i32 0, i32 3
  %12 = getelementptr inbounds nuw %"struct.std::_Deque_iterator.45", ptr %11, i32 0, i32 3
  %13 = load ptr, ptr %12, align 8, !tbaa !276
  %14 = getelementptr inbounds ptr, ptr %13, i64 -1
  call void @_ZNSt15_Deque_iteratorISt17basic_string_viewIhN4evmc11byte_traitsIhEEERS4_PS4_E11_M_set_nodeEPS6_(ptr noundef nonnull align 8 dereferenceable(32) %9, ptr noundef %14) #16
  %15 = getelementptr inbounds nuw %"class.std::_Deque_base.41", ptr %3, i32 0, i32 0
  %16 = getelementptr inbounds nuw %"struct.std::_Deque_base<std::basic_string_view<unsigned char, evmc::byte_traits<unsigned char>>, std::allocator<std::basic_string_view<unsigned char, evmc::byte_traits<unsigned char>>>>::_Deque_impl_data", ptr %15, i32 0, i32 3
  %17 = getelementptr inbounds nuw %"struct.std::_Deque_iterator.45", ptr %16, i32 0, i32 2
  %18 = load ptr, ptr %17, align 8, !tbaa !278
  %19 = getelementptr inbounds %"class.std::basic_string_view.32", ptr %18, i64 -1
  %20 = getelementptr inbounds nuw %"class.std::_Deque_base.41", ptr %3, i32 0, i32 0
  %21 = getelementptr inbounds nuw %"struct.std::_Deque_base<std::basic_string_view<unsigned char, evmc::byte_traits<unsigned char>>, std::allocator<std::basic_string_view<unsigned char, evmc::byte_traits<unsigned char>>>>::_Deque_impl_data", ptr %20, i32 0, i32 3
  %22 = getelementptr inbounds nuw %"struct.std::_Deque_iterator.45", ptr %21, i32 0, i32 0
  store ptr %19, ptr %22, align 8, !tbaa !230
  %23 = call noundef nonnull align 1 dereferenceable(1) ptr @_ZNSt11_Deque_baseISt17basic_string_viewIhN4evmc11byte_traitsIhEEESaIS4_EE19_M_get_Tp_allocatorEv(ptr noundef nonnull align 8 dereferenceable(80) %3) #16
  %24 = getelementptr inbounds nuw %"class.std::_Deque_base.41", ptr %3, i32 0, i32 0
  %25 = getelementptr inbounds nuw %"struct.std::_Deque_base<std::basic_string_view<unsigned char, evmc::byte_traits<unsigned char>>, std::allocator<std::basic_string_view<unsigned char, evmc::byte_traits<unsigned char>>>>::_Deque_impl_data", ptr %24, i32 0, i32 3
  %26 = getelementptr inbounds nuw %"struct.std::_Deque_iterator.45", ptr %25, i32 0, i32 0
  %27 = load ptr, ptr %26, align 8, !tbaa !230
  call void @_ZNSt16allocator_traitsISaISt17basic_string_viewIhN4evmc11byte_traitsIhEEEEE7destroyIS4_EEvRS5_PT_(ptr noundef nonnull align 1 dereferenceable(1) %23, ptr noundef %27) #16
  ret void
}

; Function Attrs: mustprogress nounwind uwtable
define linkonce_odr hidden void @_ZNSt16allocator_traitsISaISt17basic_string_viewIhN4evmc11byte_traitsIhEEEEE7destroyIS4_EEvRS5_PT_(ptr noundef nonnull align 1 dereferenceable(1) %0, ptr noundef %1) #0 comdat align 2 {
  %3 = alloca ptr, align 8
  %4 = alloca ptr, align 8
  store ptr %0, ptr %3, align 8, !tbaa !231
  store ptr %1, ptr %4, align 8, !tbaa !140
  %5 = load ptr, ptr %4, align 8, !tbaa !140
  call void @_ZSt10destroy_atISt17basic_string_viewIhN4evmc11byte_traitsIhEEEEvPT_(ptr noundef %5)
  ret void
}

; Function Attrs: mustprogress nounwind uwtable
define linkonce_odr hidden noundef nonnull align 1 dereferenceable(1) ptr @_ZNSt11_Deque_baseISt17basic_string_viewIhN4evmc11byte_traitsIhEEESaIS4_EE19_M_get_Tp_allocatorEv(ptr noundef nonnull align 8 dereferenceable(80) %0) #0 comdat align 2 {
  %2 = alloca ptr, align 8
  store ptr %0, ptr %2, align 8, !tbaa !217
  %3 = load ptr, ptr %2, align 8
  %4 = getelementptr inbounds nuw %"class.std::_Deque_base.41", ptr %3, i32 0, i32 0
  ret ptr %4
}

; Function Attrs: mustprogress nounwind uwtable
define linkonce_odr hidden void @_ZNSt5dequeISt17basic_string_viewIhN4evmc11byte_traitsIhEEESaIS4_EE8pop_backEv(ptr noundef nonnull align 8 dereferenceable(80) %0) #0 comdat align 2 {
  %2 = alloca ptr, align 8
  store ptr %0, ptr %2, align 8, !tbaa !215
  %3 = load ptr, ptr %2, align 8
  %4 = getelementptr inbounds nuw %"class.std::_Deque_base.41", ptr %3, i32 0, i32 0
  %5 = getelementptr inbounds nuw %"struct.std::_Deque_base<std::basic_string_view<unsigned char, evmc::byte_traits<unsigned char>>, std::allocator<std::basic_string_view<unsigned char, evmc::byte_traits<unsigned char>>>>::_Deque_impl_data", ptr %4, i32 0, i32 3
  %6 = getelementptr inbounds nuw %"struct.std::_Deque_iterator.45", ptr %5, i32 0, i32 0
  %7 = load ptr, ptr %6, align 8, !tbaa !230
  %8 = getelementptr inbounds nuw %"class.std::_Deque_base.41", ptr %3, i32 0, i32 0
  %9 = getelementptr inbounds nuw %"struct.std::_Deque_base<std::basic_string_view<unsigned char, evmc::byte_traits<unsigned char>>, std::allocator<std::basic_string_view<unsigned char, evmc::byte_traits<unsigned char>>>>::_Deque_impl_data", ptr %8, i32 0, i32 3
  %10 = getelementptr inbounds nuw %"struct.std::_Deque_iterator.45", ptr %9, i32 0, i32 1
  %11 = load ptr, ptr %10, align 8, !tbaa !229
  %12 = icmp ne ptr %7, %11
  br i1 %12, label %13, label %24

13:                                               ; preds = %1
  %14 = getelementptr inbounds nuw %"class.std::_Deque_base.41", ptr %3, i32 0, i32 0
  %15 = getelementptr inbounds nuw %"struct.std::_Deque_base<std::basic_string_view<unsigned char, evmc::byte_traits<unsigned char>>, std::allocator<std::basic_string_view<unsigned char, evmc::byte_traits<unsigned char>>>>::_Deque_impl_data", ptr %14, i32 0, i32 3
  %16 = getelementptr inbounds nuw %"struct.std::_Deque_iterator.45", ptr %15, i32 0, i32 0
  %17 = load ptr, ptr %16, align 8, !tbaa !230
  %18 = getelementptr inbounds %"class.std::basic_string_view.32", ptr %17, i32 -1
  store ptr %18, ptr %16, align 8, !tbaa !230
  %19 = call noundef nonnull align 1 dereferenceable(1) ptr @_ZNSt11_Deque_baseISt17basic_string_viewIhN4evmc11byte_traitsIhEEESaIS4_EE19_M_get_Tp_allocatorEv(ptr noundef nonnull align 8 dereferenceable(80) %3) #16
  %20 = getelementptr inbounds nuw %"class.std::_Deque_base.41", ptr %3, i32 0, i32 0
  %21 = getelementptr inbounds nuw %"struct.std::_Deque_base<std::basic_string_view<unsigned char, evmc::byte_traits<unsigned char>>, std::allocator<std::basic_string_view<unsigned char, evmc::byte_traits<unsigned char>>>>::_Deque_impl_data", ptr %20, i32 0, i32 3
  %22 = getelementptr inbounds nuw %"struct.std::_Deque_iterator.45", ptr %21, i32 0, i32 0
  %23 = load ptr, ptr %22, align 8, !tbaa !230
  call void @_ZNSt16allocator_traitsISaISt17basic_string_viewIhN4evmc11byte_traitsIhEEEEE7destroyIS4_EEvRS5_PT_(ptr noundef nonnull align 1 dereferenceable(1) %19, ptr noundef %23) #16
  br label %25

24:                                               ; preds = %1
  call void @_ZNSt5dequeISt17basic_string_viewIhN4evmc11byte_traitsIhEEESaIS4_EE15_M_pop_back_auxEv(ptr noundef nonnull align 8 dereferenceable(80) %3)
  br label %25

25:                                               ; preds = %24, %13
  ret void
}

; Function Attrs: mustprogress nounwind uwtable
define linkonce_odr hidden void @_ZNSt5stackISt17basic_string_viewIhN4evmc11byte_traitsIhEEESt5dequeIS4_SaIS4_EEE3popEv(ptr noundef nonnull align 8 dereferenceable(80) %0) #0 comdat align 2 {
  %2 = alloca ptr, align 8
  store ptr %0, ptr %2, align 8, !tbaa !212
  %3 = load ptr, ptr %2, align 8
  %4 = getelementptr inbounds nuw %"class.std::stack.39", ptr %3, i32 0, i32 0
  call void @_ZNSt5dequeISt17basic_string_viewIhN4evmc11byte_traitsIhEEESaIS4_EE8pop_backEv(ptr noundef nonnull align 8 dereferenceable(80) %4) #16
  ret void
}

; Function Attrs: mustprogress nounwind uwtable
define internal void @_ZN6evmone12_GLOBAL__N_118InstructionCounter16on_execution_endERK11evmc_result(ptr noundef nonnull align 8 dereferenceable(1136) %0, ptr noundef nonnull align 8 dereferenceable(72) %1) unnamed_addr #0 align 2 {
  %3 = alloca ptr, align 8
  %4 = alloca ptr, align 8
  store ptr %0, ptr %3, align 8, !tbaa !30
  store ptr %1, ptr %4, align 8, !tbaa !59
  %5 = load ptr, ptr %3, align 8
  %6 = getelementptr inbounds nuw %"class.evmone::(anonymous namespace)::InstructionCounter", ptr %5, i32 0, i32 1
  call void @_ZNSt5stackISt17basic_string_viewIhN4evmc11byte_traitsIhEEESt5dequeIS4_SaIS4_EEE3popEv(ptr noundef nonnull align 8 dereferenceable(80) %6)
  ret void
}