; Function Attrs: mustprogress nounwind uwtable
define internal void @_ZN6evmone12_GLOBAL__N_118InstructionCounter16on_execution_endERK11evmc_result(ptr noundef nonnull align 8 captures(none) dereferenceable(1136) %0, ptr nonnull readnone align 8 captures(none) %1) unnamed_addr #0 align 2 {
  %3 = getelementptr inbounds nuw i8, ptr %0, i64 64
  %4 = load ptr, ptr %3, align 8, !tbaa !44
  %5 = getelementptr inbounds nuw i8, ptr %0, i64 72
  %6 = load ptr, ptr %5, align 8, !tbaa !136
  %.not.i.i = icmp eq ptr %4, %6
  br i1 %.not.i.i, label %9, label %7

7:                                                ; preds = %2
  %8 = getelementptr inbounds i8, ptr %4, i64 -16
  br label %_ZNSt5stackISt17basic_string_viewIhN4evmc11byte_traitsIhEEESt5dequeIS4_SaIS4_EEE3popEv.exit

9:                                                ; preds = %2
  tail call void @_ZdlPvm(ptr noundef %6, i64 noundef 512) #20
  %10 = getelementptr inbounds nuw i8, ptr %0, i64 88
  %11 = load ptr, ptr %10, align 8, !tbaa !127
  %12 = getelementptr inbounds i8, ptr %11, i64 -8
  store ptr %12, ptr %10, align 8, !tbaa !40
  %13 = load ptr, ptr %12, align 8, !tbaa !39
  store ptr %13, ptr %5, align 8, !tbaa !41
  %14 = getelementptr inbounds nuw i8, ptr %13, i64 512
  %15 = getelementptr inbounds nuw i8, ptr %0, i64 80
  store ptr %14, ptr %15, align 8, !tbaa !42
  %16 = getelementptr inbounds nuw i8, ptr %13, i64 496
  br label %_ZNSt5stackISt17basic_string_viewIhN4evmc11byte_traitsIhEEESt5dequeIS4_SaIS4_EEE3popEv.exit

_ZNSt5stackISt17basic_string_viewIhN4evmc11byte_traitsIhEEESt5dequeIS4_SaIS4_EEE3popEv.exit: ; preds = %7, %9
  %storemerge.i.i = phi ptr [ %8, %7 ], [ %16, %9 ]
  store ptr %storemerge.i.i, ptr %3, align 8, !tbaa !44
  ret void
}